target datalayout = "e-m:e-p270:32:32-p271:32:32-p272:64:64-i64:64-i128:128-f80:128-n8:16:32:64-S128"
target triple = "x86_64-pc-linux-gnu"

%"class.std::__cxx11::basic_string" = type { %"struct.std::__cxx11::basic_string<char>::_Alloc_hider", i64, %union.anon }
%"struct.std::__cxx11::basic_string<char>::_Alloc_hider" = type { ptr }
%union.anon = type { i64, [8 x i8] }
%"class.Assimp::FBX::Node" = type { %"class.std::__cxx11::basic_string", %"class.std::vector", %"class.std::vector.3", i8, i64, i64, i64 }
%"class.std::vector" = type { %"struct.std::_Vector_base" }
%"struct.std::_Vector_base" = type { %"struct.std::_Vector_base<Assimp::FBX::FBXExportProperty, std::allocator<Assimp::FBX::FBXExportProperty>>::_Vector_impl" }
%"struct.std::_Vector_base<Assimp::FBX::FBXExportProperty, std::allocator<Assimp::FBX::FBXExportProperty>>::_Vector_impl" = type { %"struct.std::_Vector_base<Assimp::FBX::FBXExportProperty, std::allocator<Assimp::FBX::FBXExportProperty>>::_Vector_impl_data" }
%"struct.std::_Vector_base<Assimp::FBX::FBXExportProperty, std::allocator<Assimp::FBX::FBXExportProperty>>::_Vector_impl_data" = type { ptr, ptr, ptr }
%"class.std::vector.3" = type { %"struct.std::_Vector_base.4" }
%"struct.std::_Vector_base.4" = type { %"struct.std::_Vector_base<Assimp::FBX::Node, std::allocator<Assimp::FBX::Node>>::_Vector_impl" }
%"struct.std::_Vector_base<Assimp::FBX::Node, std::allocator<Assimp::FBX::Node>>::_Vector_impl" = type { %"struct.std::_Vector_base<Assimp::FBX::Node, std::allocator<Assimp::FBX::Node>>::_Vector_impl_data" }
%"struct.std::_Vector_base<Assimp::FBX::Node, std::allocator<Assimp::FBX::Node>>::_Vector_impl_data" = type { ptr, ptr, ptr }

@.str.22 = private unnamed_addr constant [15 x i8] c"EncryptionType\00", align 1

; Function Attrs: inlinehint mustprogress nounwind uwtable
define linkonce_odr noundef zeroext i1 @_ZSteqIcSt11char_traitsIcESaIcEEbRKNSt7__cxx1112basic_stringIT_T0_T1_EEPKS5_(ptr noundef nonnull align 8 dereferenceable(32) %0, ptr noundef %1) #5 comdat {
  %3 = alloca ptr, align 8
  %4 = alloca ptr, align 8
  store ptr %0, ptr %3, align 8
  store ptr %1, ptr %4, align 8
  %5 = load ptr, ptr %3, align 8
  %6 = load ptr, ptr %4, align 8
  %7 = call noundef i32 @_ZNKSt7__cxx1112basic_stringIcSt11char_traitsIcESaIcEE7compareEPKc(ptr noundef nonnull align 8 dereferenceable(32) %5, ptr noundef %6) #4
  %8 = icmp eq i32 %7, 0
  ret i1 %8
}

; Function Attrs: mustprogress nounwind uwtable
define linkonce_odr hidden noundef nonnull align 8 dereferenceable(112) ptr @_ZNSt6vectorIN6Assimp3FBX4NodeESaIS2_EEixEm(ptr noundef nonnull align 8 dereferenceable(24) %0, i64 noundef %1) #2 comdat align 2 {
  %3 = alloca ptr, align 8
  %4 = alloca i64, align 8
  store ptr %0, ptr %3, align 8
  store i64 %1, ptr %4, align 8
  %5 = load ptr, ptr %3, align 8
  %6 = getelementptr inbounds nuw %"struct.std::_Vector_base.4", ptr %5, i32 0, i32 0
  %7 = getelementptr inbounds nuw %"struct.std::_Vector_base<Assimp::FBX::Node, std::allocator<Assimp::FBX::Node>>::_Vector_impl_data", ptr %6, i32 0, i32 0
  %8 = load ptr, ptr %7, align 8
  %9 = load i64, ptr %4, align 8
  %10 = getelementptr inbounds nuw %"class.Assimp::FBX::Node", ptr %8, i64 %9
  ret ptr %10
}

; Function Attrs: mustprogress nounwind uwtable
define linkonce_odr hidden noundef i64 @_ZNKSt6vectorIN6Assimp3FBX4NodeESaIS2_EE4sizeEv(ptr noundef nonnull align 8 dereferenceable(24) %0) #2 comdat align 2 {
  %2 = alloca ptr, align 8
  store ptr %0, ptr %2, align 8
  %3 = load ptr, ptr %2, align 8
  %4 = getelementptr inbounds nuw %"struct.std::_Vector_base.4", ptr %3, i32 0, i32 0
  %5 = getelementptr inbounds nuw %"struct.std::_Vector_base<Assimp::FBX::Node, std::allocator<Assimp::FBX::Node>>::_Vector_impl_data", ptr %4, i32 0, i32 1
  %6 = load ptr, ptr %5, align 8
  %7 = getelementptr inbounds nuw %"struct.std::_Vector_base.4", ptr %3, i32 0, i32 0
  %8 = getelementptr inbounds nuw %"struct.std::_Vector_base<Assimp::FBX::Node, std::allocator<Assimp::FBX::Node>>::_Vector_impl_data", ptr %7, i32 0, i32 0
  %9 = load ptr, ptr %8, align 8
  %10 = ptrtoint ptr %6 to i64
  %11 = ptrtoint ptr %9 to i64
  %12 = sub i64 %10, %11
  %13 = sdiv exact i64 %12, 112
  ret i64 %13
}

; Function Attrs: mustprogress uwtable
define hidden void @_ZN6Assimp3FBX4Node17DumpChildrenAsciiERSoi(ptr noundef nonnull align 8 dereferenceable(112) %0, ptr noundef nonnull align 8 dereferenceable(8) %1, i32 noundef %2) #3 align 2 {
  %4 = alloca ptr, align 8
  %5 = alloca ptr, align 8
  %6 = alloca i32, align 4
  %7 = alloca i64, align 8
  store ptr %0, ptr %4, align 8
  store ptr %1, ptr %5, align 8
  store i32 %2, ptr %6, align 4
  %8 = load ptr, ptr %4, align 8
  %9 = getelementptr inbounds nuw %"class.Assimp::FBX::Node", ptr %8, i32 0, i32 2
  %10 = call noundef i64 @_ZNKSt6vectorIN6Assimp3FBX4NodeESaIS2_EE4sizeEv(ptr noundef nonnull align 8 dereferenceable(24) %9) #4
  %11 = icmp ne i64 %10, 0
  br i1 %11, label %16, label %12

12:                                               ; preds = %3
  %13 = getelementptr inbounds nuw %"class.Assimp::FBX::Node", ptr %8, i32 0, i32 3
  %14 = load i8, ptr %13, align 8, !range !3, !noundef !4
  %15 = trunc i8 %14 to i1
  br i1 %15, label %16, label %40

16:                                               ; preds = %12, %3
  call void @llvm.lifetime.start.p0(i64 8, ptr %7) #4
  store i64 0, ptr %7, align 8
  br label %17

17:                                               ; preds = %36, %16
  %18 = load i64, ptr %7, align 8
  %19 = getelementptr inbounds nuw %"class.Assimp::FBX::Node", ptr %8, i32 0, i32 2
  %20 = call noundef i64 @_ZNKSt6vectorIN6Assimp3FBX4NodeESaIS2_EE4sizeEv(ptr noundef nonnull align 8 dereferenceable(24) %19) #4
  %21 = icmp ult i64 %18, %20
  br i1 %21, label %23, label %22

22:                                               ; preds = %17
  call void @llvm.lifetime.end.p0(i64 8, ptr %7) #4
  br label %39

23:                                               ; preds = %17
  %24 = getelementptr inbounds nuw %"class.Assimp::FBX::Node", ptr %8, i32 0, i32 2
  %25 = load i64, ptr %7, align 8
  %26 = call noundef nonnull align 8 dereferenceable(112) ptr @_ZNSt6vectorIN6Assimp3FBX4NodeESaIS2_EEixEm(ptr noundef nonnull align 8 dereferenceable(24) %24, i64 noundef %25) #4
  %27 = getelementptr inbounds nuw %"class.Assimp::FBX::Node", ptr %26, i32 0, i32 0
  %28 = call noundef zeroext i1 @_ZSteqIcSt11char_traitsIcESaIcEEbRKNSt7__cxx1112basic_stringIT_T0_T1_EEPKS5_(ptr noundef nonnull align 8 dereferenceable(32) %27, ptr noundef @.str.22)
  br i1 %28, label %29, label %30

29:                                               ; preds = %23
  br label %36

30:                                               ; preds = %23
  %31 = getelementptr inbounds nuw %"class.Assimp::FBX::Node", ptr %8, i32 0, i32 2
  %32 = load i64, ptr %7, align 8
  %33 = call noundef nonnull align 8 dereferenceable(112) ptr @_ZNSt6vectorIN6Assimp3FBX4NodeESaIS2_EEixEm(ptr noundef nonnull align 8 dereferenceable(24) %31, i64 noundef %32) #4
  %34 = load ptr, ptr %5, align 8
  %35 = load i32, ptr %6, align 4
  call void @_ZN6Assimp3FBX4Node9DumpAsciiERSoi(ptr noundef nonnull align 8 dereferenceable(112) %33, ptr noundef nonnull align 8 dereferenceable(8) %34, i32 noundef %35)
  br label %36

36:                                               ; preds = %30, %29
  %37 = load i64, ptr %7, align 8
  %38 = add i64 %37, 1
  store i64 %38, ptr %7, align 8
  br label %17, !llvm.loop !8

39:                                               ; preds = %22
  br label %40

40:                                               ; preds = %39, %12
  ret void
}