; Function Attrs: mustprogress uwtable
define hidden void @_ZN6Assimp3FBX4Node17DumpChildrenAsciiERSoi(ptr noundef nonnull readonly align 8 captures(none) dereferenceable(112) %0, ptr noundef nonnull align 8 dereferenceable(8) %1, i32 noundef %2) local_unnamed_addr #3 align 2 {
  %4 = getelementptr inbounds nuw i8, ptr %0, i64 56
  %5 = getelementptr inbounds nuw i8, ptr %0, i64 64
  %6 = load ptr, ptr %5, align 8
  %7 = load ptr, ptr %4, align 8
  %.not = icmp eq ptr %6, %7
  br i1 %.not, label %.loopexit, label %.lr.ph

.lr.ph:                                           ; preds = %3, %15
  %8 = phi ptr [ %18, %15 ], [ %7, %3 ]
  %.06 = phi i64 [ %16, %15 ], [ 0, %3 ]
  %9 = getelementptr inbounds nuw %"class.Assimp::FBX::Node", ptr %8, i64 %.06
  %10 = tail call noundef i32 @_ZNKSt7__cxx1112basic_stringIcSt11char_traitsIcESaIcEE7compareEPKc(ptr noundef nonnull align 8 dereferenceable(32) %9, ptr noundef nonnull @.str.22) #23
  %11 = icmp eq i32 %10, 0
  br i1 %11, label %15, label %12

12:                                               ; preds = %.lr.ph
  %13 = load ptr, ptr %4, align 8
  %14 = getelementptr inbounds nuw %"class.Assimp::FBX::Node", ptr %13, i64 %.06
  tail call void @_ZN6Assimp3FBX4Node9DumpAsciiERSoi(ptr noundef nonnull align 8 dereferenceable(112) %14, ptr noundef nonnull align 8 dereferenceable(8) %1, i32 noundef %2)
  br label %15

15:                                               ; preds = %.lr.ph, %12
  %16 = add nuw i64 %.06, 1
  %17 = load ptr, ptr %5, align 8
  %18 = load ptr, ptr %4, align 8
  %19 = ptrtoint ptr %17 to i64
  %20 = ptrtoint ptr %18 to i64
  %21 = sub i64 %19, %20
  %22 = sdiv exact i64 %21, 112
  %23 = icmp ult i64 %16, %22
  br i1 %23, label %.lr.ph, label %.loopexit, !llvm.loop !16

.loopexit:                                        ; preds = %15, %3
  ret void
}